target datalayout = "e-m:e-p270:32:32-p271:32:32-p272:64:64-i64:64-i128:128-f80:128-n8:16:32:64-S128"
target triple = "x86_64-pc-linux-gnu"

%struct.SResource = type { ptr, i8, i8, i32, i32, i32, i32, i32, ptr, %struct.UString }
%struct.UString = type { ptr, i32, i32 }
%class.ContainerResource = type { %struct.SResource, i32, ptr }
%class.TableResource = type { %class.ContainerResource, i8, ptr }

; Function Attrs: mustprogress nounwind uwtable
define internal noundef zeroext i8 @_ZL11calcPaddingj(i32 noundef %0) #4 {
  %2 = alloca i32, align 4
  store i32 %0, ptr %2, align 4, !tbaa !23
  %3 = load i32, ptr %2, align 4, !tbaa !23
  %4 = zext i32 %3 to i64
  %5 = urem i64 %4, 4
  %6 = icmp ne i64 %5, 0
  br i1 %6, label %7, label %12

7:                                                ; preds = %1
  %8 = load i32, ptr %2, align 4, !tbaa !23
  %9 = zext i32 %8 to i64
  %10 = urem i64 %9, 4
  %11 = sub i64 4, %10
  br label %13

12:                                               ; preds = %1
  br label %13

13:                                               ; preds = %12, %7
  %14 = phi i64 [ %11, %7 ], [ 0, %12 ]
  %15 = trunc i64 %14 to i8
  ret i8 %15
}

; Function Attrs: mustprogress uwtable
define dso_local void @_ZN9SResource5writeEP14UNewDataMemoryPj(ptr noundef nonnull align 8 dereferenceable(56) %0, ptr noundef %1, ptr noundef %2) #5 align 2 {
  %4 = alloca ptr, align 8
  %5 = alloca ptr, align 8
  %6 = alloca ptr, align 8
  %7 = alloca i8, align 1
  store ptr %0, ptr %4, align 8, !tbaa !24
  store ptr %1, ptr %5, align 8, !tbaa !132
  store ptr %2, ptr %6, align 8, !tbaa !96
  %8 = load ptr, ptr %4, align 8
  %9 = getelementptr inbounds nuw %struct.SResource, ptr %8, i32 0, i32 2
  %10 = load i8, ptr %9, align 1, !tbaa !32
  %11 = icmp ne i8 %10, 0
  br i1 %11, label %12, label %13

12:                                               ; preds = %3
  br label %36

13:                                               ; preds = %3
  %14 = load ptr, ptr %5, align 8, !tbaa !132
  %15 = load ptr, ptr %6, align 8, !tbaa !96
  %16 = load ptr, ptr %8, align 8, !tbaa !26
  %17 = getelementptr inbounds ptr, ptr %16, i64 5
  %18 = load ptr, ptr %17, align 8
  call void %18(ptr noundef nonnull align 8 dereferenceable(56) %8, ptr noundef %14, ptr noundef %15)
  call void @llvm.lifetime.start.p0(i64 1, ptr %7) #3
  %19 = load ptr, ptr %6, align 8, !tbaa !96
  %20 = load i32, ptr %19, align 4, !tbaa !23
  %21 = call noundef zeroext i8 @_ZL11calcPaddingj(i32 noundef %20)
  store i8 %21, ptr %7, align 1, !tbaa !22
  %22 = load i8, ptr %7, align 1, !tbaa !22
  %23 = zext i8 %22 to i32
  %24 = icmp sgt i32 %23, 0
  br i1 %24, label %25, label %34

25:                                               ; preds = %13
  %26 = load ptr, ptr %5, align 8, !tbaa !132
  %27 = load i8, ptr %7, align 1, !tbaa !22
  %28 = zext i8 %27 to i32
  call void @udata_writePadding(ptr noundef %26, i32 noundef %28)
  %29 = load i8, ptr %7, align 1, !tbaa !22
  %30 = zext i8 %29 to i32
  %31 = load ptr, ptr %6, align 8, !tbaa !96
  %32 = load i32, ptr %31, align 4, !tbaa !23
  %33 = add i32 %32, %30
  store i32 %33, ptr %31, align 4, !tbaa !23
  br label %34

34:                                               ; preds = %25, %13
  %35 = getelementptr inbounds nuw %struct.SResource, ptr %8, i32 0, i32 2
  store i8 1, ptr %35, align 1, !tbaa !32
  call void @llvm.lifetime.end.p0(i64 1, ptr %7) #3
  br label %36

36:                                               ; preds = %34, %12
  ret void
}

; Function Attrs: mustprogress uwtable
define dso_local void @_ZN17ContainerResource13writeAllRes32EP14UNewDataMemoryPj(ptr noundef nonnull align 8 dereferenceable(72) %0, ptr noundef %1, ptr noundef %2) #5 align 2 {
  %4 = alloca ptr, align 8
  %5 = alloca ptr, align 8
  %6 = alloca ptr, align 8
  %7 = alloca ptr, align 8
  store ptr %0, ptr %4, align 8, !tbaa !53
  store ptr %1, ptr %5, align 8, !tbaa !132
  store ptr %2, ptr %6, align 8, !tbaa !96
  %8 = load ptr, ptr %4, align 8
  call void @llvm.lifetime.start.p0(i64 8, ptr %7) #3
  %9 = getelementptr inbounds nuw %class.ContainerResource, ptr %8, i32 0, i32 2
  %10 = load ptr, ptr %9, align 8, !tbaa !55
  store ptr %10, ptr %7, align 8, !tbaa !24
  br label %11

11:                                               ; preds = %20, %3
  %12 = load ptr, ptr %7, align 8, !tbaa !24
  %13 = icmp ne ptr %12, null
  br i1 %13, label %15, label %14

14:                                               ; preds = %11
  call void @llvm.lifetime.end.p0(i64 8, ptr %7) #3
  br label %24

15:                                               ; preds = %11
  %16 = load ptr, ptr %5, align 8, !tbaa !132
  %17 = load ptr, ptr %7, align 8, !tbaa !24
  %18 = getelementptr inbounds nuw %struct.SResource, ptr %17, i32 0, i32 3
  %19 = load i32, ptr %18, align 4, !tbaa !33
  call void @udata_write32(ptr noundef %16, i32 noundef %19)
  br label %20

20:                                               ; preds = %15
  %21 = load ptr, ptr %7, align 8, !tbaa !24
  %22 = getelementptr inbounds nuw %struct.SResource, ptr %21, i32 0, i32 8
  %23 = load ptr, ptr %22, align 8, !tbaa !38
  store ptr %23, ptr %7, align 8, !tbaa !24
  br label %11, !llvm.loop !135

24:                                               ; preds = %14
  %25 = getelementptr inbounds nuw %class.ContainerResource, ptr %8, i32 0, i32 1
  %26 = load i32, ptr %25, align 8, !tbaa !61
  %27 = mul i32 %26, 4
  %28 = load ptr, ptr %6, align 8, !tbaa !96
  %29 = load i32, ptr %28, align 4, !tbaa !23
  %30 = add i32 %29, %27
  store i32 %30, ptr %28, align 4, !tbaa !23
  ret void
}

; Function Attrs: mustprogress uwtable
define dso_local void @_ZN17ContainerResource11writeAllResEP14UNewDataMemoryPj(ptr noundef nonnull align 8 dereferenceable(72) %0, ptr noundef %1, ptr noundef %2) #5 align 2 {
  %4 = alloca ptr, align 8
  %5 = alloca ptr, align 8
  %6 = alloca ptr, align 8
  %7 = alloca i32, align 4
  %8 = alloca ptr, align 8
  store ptr %0, ptr %4, align 8, !tbaa !53
  store ptr %1, ptr %5, align 8, !tbaa !132
  store ptr %2, ptr %6, align 8, !tbaa !96
  %9 = load ptr, ptr %4, align 8
  call void @llvm.lifetime.start.p0(i64 4, ptr %7) #3
  store i32 0, ptr %7, align 4, !tbaa !23
  call void @llvm.lifetime.start.p0(i64 8, ptr %8) #3
  %10 = getelementptr inbounds nuw %class.ContainerResource, ptr %9, i32 0, i32 2
  %11 = load ptr, ptr %10, align 8, !tbaa !55
  store ptr %11, ptr %8, align 8, !tbaa !24
  br label %12

12:                                               ; preds = %20, %3
  %13 = load ptr, ptr %8, align 8, !tbaa !24
  %14 = icmp ne ptr %13, null
  br i1 %14, label %16, label %15

15:                                               ; preds = %12
  call void @llvm.lifetime.end.p0(i64 8, ptr %8) #3
  br label %26

16:                                               ; preds = %12
  %17 = load ptr, ptr %8, align 8, !tbaa !24
  %18 = load ptr, ptr %5, align 8, !tbaa !132
  %19 = load ptr, ptr %6, align 8, !tbaa !96
  call void @_ZN9SResource5writeEP14UNewDataMemoryPj(ptr noundef nonnull align 8 dereferenceable(56) %17, ptr noundef %18, ptr noundef %19)
  br label %20

20:                                               ; preds = %16
  %21 = load i32, ptr %7, align 4, !tbaa !23
  %22 = add i32 %21, 1
  store i32 %22, ptr %7, align 4, !tbaa !23
  %23 = load ptr, ptr %8, align 8, !tbaa !24
  %24 = getelementptr inbounds nuw %struct.SResource, ptr %23, i32 0, i32 8
  %25 = load ptr, ptr %24, align 8, !tbaa !38
  store ptr %25, ptr %8, align 8, !tbaa !24
  br label %12, !llvm.loop !134

26:                                               ; preds = %15
  call void @llvm.lifetime.end.p0(i64 4, ptr %7) #3
  ret void
}

; Function Attrs: mustprogress uwtable
define dso_local void @_ZN13TableResource11handleWriteEP14UNewDataMemoryPj(ptr noundef nonnull align 8 dereferenceable(88) %0, ptr noundef %1, ptr noundef %2) unnamed_addr #5 align 2 {
  %4 = alloca ptr, align 8
  %5 = alloca ptr, align 8
  %6 = alloca ptr, align 8
  %7 = alloca ptr, align 8
  %8 = alloca ptr, align 8
  store ptr %0, ptr %4, align 8, !tbaa !59
  store ptr %1, ptr %5, align 8, !tbaa !132
  store ptr %2, ptr %6, align 8, !tbaa !96
  %9 = load ptr, ptr %4, align 8
  %10 = load ptr, ptr %5, align 8, !tbaa !132
  %11 = load ptr, ptr %6, align 8, !tbaa !96
  call void @_ZN17ContainerResource11writeAllResEP14UNewDataMemoryPj(ptr noundef nonnull align 8 dereferenceable(72) %9, ptr noundef %10, ptr noundef %11)
  %12 = getelementptr inbounds nuw %class.TableResource, ptr %9, i32 0, i32 1
  %13 = load i8, ptr %12, align 8, !tbaa !130
  %14 = sext i8 %13 to i32
  %15 = icmp eq i32 %14, 2
  br i1 %15, label %16, label %55

16:                                               ; preds = %3
  %17 = load ptr, ptr %5, align 8, !tbaa !132
  %18 = getelementptr inbounds nuw %class.ContainerResource, ptr %9, i32 0, i32 1
  %19 = load i32, ptr %18, align 8, !tbaa !61
  %20 = trunc i32 %19 to i16
  call void @udata_write16(ptr noundef %17, i16 noundef zeroext %20)
  call void @llvm.lifetime.start.p0(i64 8, ptr %7) #3
  %21 = getelementptr inbounds nuw %class.ContainerResource, ptr %9, i32 0, i32 2
  %22 = load ptr, ptr %21, align 8, !tbaa !55
  store ptr %22, ptr %7, align 8, !tbaa !24
  br label %23

23:                                               ; preds = %33, %16
  %24 = load ptr, ptr %7, align 8, !tbaa !24
  %25 = icmp ne ptr %24, null
  br i1 %25, label %27, label %26

26:                                               ; preds = %23
  call void @llvm.lifetime.end.p0(i64 8, ptr %7) #3
  br label %37

27:                                               ; preds = %23
  %28 = load ptr, ptr %5, align 8, !tbaa !132
  %29 = load ptr, ptr %7, align 8, !tbaa !24
  %30 = getelementptr inbounds nuw %struct.SResource, ptr %29, i32 0, i32 6
  %31 = load i32, ptr %30, align 8, !tbaa !36
  %32 = trunc i32 %31 to i16
  call void @udata_write16(ptr noundef %28, i16 noundef zeroext %32)
  br label %33

33:                                               ; preds = %27
  %34 = load ptr, ptr %7, align 8, !tbaa !24
  %35 = getelementptr inbounds nuw %struct.SResource, ptr %34, i32 0, i32 8
  %36 = load ptr, ptr %35, align 8, !tbaa !38
  store ptr %36, ptr %7, align 8, !tbaa !24
  br label %23, !llvm.loop !137

37:                                               ; preds = %26
  %38 = getelementptr inbounds nuw %class.ContainerResource, ptr %9, i32 0, i32 1
  %39 = load i32, ptr %38, align 8, !tbaa !61
  %40 = add i32 1, %39
  %41 = mul i32 %40, 2
  %42 = load ptr, ptr %6, align 8, !tbaa !96
  %43 = load i32, ptr %42, align 4, !tbaa !23
  %44 = add i32 %43, %41
  store i32 %44, ptr %42, align 4, !tbaa !23
  %45 = getelementptr inbounds nuw %class.ContainerResource, ptr %9, i32 0, i32 1
  %46 = load i32, ptr %45, align 8, !tbaa !61
  %47 = and i32 %46, 1
  %48 = icmp eq i32 %47, 0
  br i1 %48, label %49, label %54

49:                                               ; preds = %37
  %50 = load ptr, ptr %5, align 8, !tbaa !132
  call void @udata_writePadding(ptr noundef %50, i32 noundef 2)
  %51 = load ptr, ptr %6, align 8, !tbaa !96
  %52 = load i32, ptr %51, align 4, !tbaa !23
  %53 = add i32 %52, 2
  store i32 %53, ptr %51, align 4, !tbaa !23
  br label %54

54:                                               ; preds = %49, %37
  br label %82

55:                                               ; preds = %3
  %56 = load ptr, ptr %5, align 8, !tbaa !132
  %57 = getelementptr inbounds nuw %class.ContainerResource, ptr %9, i32 0, i32 1
  %58 = load i32, ptr %57, align 8, !tbaa !61
  call void @udata_write32(ptr noundef %56, i32 noundef %58)
  call void @llvm.lifetime.start.p0(i64 8, ptr %8) #3
  %59 = getelementptr inbounds nuw %class.ContainerResource, ptr %9, i32 0, i32 2
  %60 = load ptr, ptr %59, align 8, !tbaa !55
  store ptr %60, ptr %8, align 8, !tbaa !24
  br label %61

61:                                               ; preds = %70, %55
  %62 = load ptr, ptr %8, align 8, !tbaa !24
  %63 = icmp ne ptr %62, null
  br i1 %63, label %65, label %64

64:                                               ; preds = %61
  call void @llvm.lifetime.end.p0(i64 8, ptr %8) #3
  br label %74

65:                                               ; preds = %61
  %66 = load ptr, ptr %5, align 8, !tbaa !132
  %67 = load ptr, ptr %8, align 8, !tbaa !24
  %68 = getelementptr inbounds nuw %struct.SResource, ptr %67, i32 0, i32 5
  %69 = load i32, ptr %68, align 4, !tbaa !35
  call void @udata_write32(ptr noundef %66, i32 noundef %69)
  br label %70

70:                                               ; preds = %65
  %71 = load ptr, ptr %8, align 8, !tbaa !24
  %72 = getelementptr inbounds nuw %struct.SResource, ptr %71, i32 0, i32 8
  %73 = load ptr, ptr %72, align 8, !tbaa !38
  store ptr %73, ptr %8, align 8, !tbaa !24
  br label %61, !llvm.loop !138

74:                                               ; preds = %64
  %75 = getelementptr inbounds nuw %class.ContainerResource, ptr %9, i32 0, i32 1
  %76 = load i32, ptr %75, align 8, !tbaa !61
  %77 = add i32 1, %76
  %78 = mul i32 %77, 4
  %79 = load ptr, ptr %6, align 8, !tbaa !96
  %80 = load i32, ptr %79, align 4, !tbaa !23
  %81 = add i32 %80, %78
  store i32 %81, ptr %79, align 4, !tbaa !23
  br label %82

82:                                               ; preds = %74, %54
  %83 = load ptr, ptr %5, align 8, !tbaa !132
  %84 = load ptr, ptr %6, align 8, !tbaa !96
  call void @_ZN17ContainerResource13writeAllRes32EP14UNewDataMemoryPj(ptr noundef nonnull align 8 dereferenceable(72) %9, ptr noundef %83, ptr noundef %84)
  ret void
}