; Function Attrs: mustprogress uwtable
define dso_local void @_ZN13TableResource11handleWriteEP14UNewDataMemoryPj(ptr noundef nonnull readonly align 8 captures(none) dereferenceable(88) %0, ptr noundef %1, ptr noundef %2) unnamed_addr #7 align 2 {
  %4 = getelementptr inbounds nuw i8, ptr %0, i64 64
  %.07.i = load ptr, ptr %4, align 8, !tbaa !74
  %.not8.i = icmp eq ptr %.07.i, null
  br i1 %.not8.i, label %_ZN17ContainerResource11writeAllResEP14UNewDataMemoryPj.exit, label %.lr.ph.i

.lr.ph.i:                                         ; preds = %3, %_ZN9SResource5writeEP14UNewDataMemoryPj.exit.i
  %.09.i = phi ptr [ %.0.i, %_ZN9SResource5writeEP14UNewDataMemoryPj.exit.i ], [ %.07.i, %3 ]
  %5 = getelementptr inbounds nuw i8, ptr %.09.i, i64 9
  %6 = load i8, ptr %5, align 1, !tbaa !17
  %.not.i.i = icmp eq i8 %6, 0
  br i1 %.not.i.i, label %7, label %_ZN9SResource5writeEP14UNewDataMemoryPj.exit.i

7:                                                ; preds = %.lr.ph.i
  %8 = load ptr, ptr %.09.i, align 8, !tbaa !9
  %9 = getelementptr inbounds nuw i8, ptr %8, i64 40
  %10 = load ptr, ptr %9, align 8
  tail call void %10(ptr noundef nonnull align 8 dereferenceable(56) %.09.i, ptr noundef %1, ptr noundef %2)
  %11 = load i32, ptr %2, align 4, !tbaa !7
  %12 = and i32 %11, 3
  %.not.i.i.i = icmp eq i32 %12, 0
  br i1 %.not.i.i.i, label %17, label %13

13:                                               ; preds = %7
  %14 = sub nuw nsw i32 4, %12
  tail call void @udata_writePadding(ptr noundef %1, i32 noundef %14)
  %15 = load i32, ptr %2, align 4, !tbaa !7
  %16 = add i32 %15, %14
  store i32 %16, ptr %2, align 4, !tbaa !7
  br label %17

17:                                               ; preds = %13, %7
  store i8 1, ptr %5, align 1, !tbaa !17
  br label %_ZN9SResource5writeEP14UNewDataMemoryPj.exit.i

_ZN9SResource5writeEP14UNewDataMemoryPj.exit.i:   ; preds = %17, %.lr.ph.i
  %18 = getelementptr inbounds nuw i8, ptr %.09.i, i64 32
  %.0.i = load ptr, ptr %18, align 8, !tbaa !74
  %.not.i = icmp eq ptr %.0.i, null
  br i1 %.not.i, label %_ZN17ContainerResource11writeAllResEP14UNewDataMemoryPj.exit, label %.lr.ph.i, !llvm.loop !95

_ZN17ContainerResource11writeAllResEP14UNewDataMemoryPj.exit: ; preds = %_ZN9SResource5writeEP14UNewDataMemoryPj.exit.i, %3
  %19 = getelementptr inbounds nuw i8, ptr %0, i64 72
  %20 = load i8, ptr %19, align 8, !tbaa !92
  %21 = icmp eq i8 %20, 2
  %22 = getelementptr inbounds nuw i8, ptr %0, i64 56
  %23 = load i32, ptr %22, align 8, !tbaa !42
  br i1 %21, label %24, label %41

24:                                               ; preds = %_ZN17ContainerResource11writeAllResEP14UNewDataMemoryPj.exit
  %25 = trunc i32 %23 to i16
  tail call void @udata_write16(ptr noundef %1, i16 noundef zeroext %25)
  %.01927 = load ptr, ptr %4, align 8, !tbaa !74
  %.not2028 = icmp eq ptr %.01927, null
  br i1 %.not2028, label %._crit_edge32, label %.lr.ph31

._crit_edge32:                                    ; preds = %.lr.ph31, %24
  %26 = load i32, ptr %22, align 8, !tbaa !42
  %27 = shl i32 %26, 1
  %28 = add i32 %27, 2
  %29 = load i32, ptr %2, align 4, !tbaa !7
  %30 = add i32 %28, %29
  store i32 %30, ptr %2, align 4, !tbaa !7
  %31 = load i32, ptr %22, align 8, !tbaa !42
  %32 = and i32 %31, 1
  %33 = icmp eq i32 %32, 0
  br i1 %33, label %38, label %50

.lr.ph31:                                         ; preds = %24, %.lr.ph31
  %.01929 = phi ptr [ %.019, %.lr.ph31 ], [ %.01927, %24 ]
  %34 = getelementptr inbounds nuw i8, ptr %.01929, i64 24
  %35 = load i32, ptr %34, align 8, !tbaa !37
  %36 = trunc i32 %35 to i16
  tail call void @udata_write16(ptr noundef %1, i16 noundef zeroext %36)
  %37 = getelementptr inbounds nuw i8, ptr %.01929, i64 32
  %.019 = load ptr, ptr %37, align 8, !tbaa !74
  %.not20 = icmp eq ptr %.019, null
  br i1 %.not20, label %._crit_edge32, label %.lr.ph31, !llvm.loop !98

38:                                               ; preds = %._crit_edge32
  tail call void @udata_writePadding(ptr noundef %1, i32 noundef 2)
  %39 = load i32, ptr %2, align 4, !tbaa !7
  %40 = add i32 %39, 2
  br label %.sink.split

41:                                               ; preds = %_ZN17ContainerResource11writeAllResEP14UNewDataMemoryPj.exit
  tail call void @udata_write32(ptr noundef %1, i32 noundef %23)
  %.024 = load ptr, ptr %4, align 8, !tbaa !74
  %.not25 = icmp eq ptr %.024, null
  br i1 %.not25, label %._crit_edge, label %.lr.ph

._crit_edge:                                      ; preds = %.lr.ph, %41
  %42 = load i32, ptr %22, align 8, !tbaa !42
  %43 = shl i32 %42, 2
  %44 = add i32 %43, 4
  %45 = load i32, ptr %2, align 4, !tbaa !7
  %46 = add i32 %44, %45
  br label %.sink.split

.lr.ph:                                           ; preds = %41, %.lr.ph
  %.026 = phi ptr [ %.0, %.lr.ph ], [ %.024, %41 ]
  %47 = getelementptr inbounds nuw i8, ptr %.026, i64 20
  %48 = load i32, ptr %47, align 4, !tbaa !36
  tail call void @udata_write32(ptr noundef %1, i32 noundef %48)
  %49 = getelementptr inbounds nuw i8, ptr %.026, i64 32
  %.0 = load ptr, ptr %49, align 8, !tbaa !74
  %.not = icmp eq ptr %.0, null
  br i1 %.not, label %._crit_edge, label %.lr.ph, !llvm.loop !99

.sink.split:                                      ; preds = %._crit_edge, %38
  %.sink = phi i32 [ %40, %38 ], [ %46, %._crit_edge ]
  store i32 %.sink, ptr %2, align 4, !tbaa !7
  br label %50

50:                                               ; preds = %.sink.split, %._crit_edge32
  %51 = phi i32 [ %30, %._crit_edge32 ], [ %.sink, %.sink.split ]
  %.06.i = load ptr, ptr %4, align 8, !tbaa !74
  %.not7.i = icmp eq ptr %.06.i, null
  br i1 %.not7.i, label %_ZN17ContainerResource13writeAllRes32EP14UNewDataMemoryPj.exit, label %.lr.ph.i21

.lr.ph.i21:                                       ; preds = %50, %.lr.ph.i21
  %.08.i = phi ptr [ %.0.i22, %.lr.ph.i21 ], [ %.06.i, %50 ]
  %52 = getelementptr inbounds nuw i8, ptr %.08.i, i64 12
  %53 = load i32, ptr %52, align 4, !tbaa !20
  tail call void @udata_write32(ptr noundef %1, i32 noundef %53)
  %54 = getelementptr inbounds nuw i8, ptr %.08.i, i64 32
  %.0.i22 = load ptr, ptr %54, align 8, !tbaa !74
  %.not.i23 = icmp eq ptr %.0.i22, null
  br i1 %.not.i23, label %_ZN17ContainerResource13writeAllRes32EP14UNewDataMemoryPj.exit.loopexit, label %.lr.ph.i21, !llvm.loop !96

_ZN17ContainerResource13writeAllRes32EP14UNewDataMemoryPj.exit.loopexit: ; preds = %.lr.ph.i21
  %.pre = load i32, ptr %2, align 4, !tbaa !7
  br label %_ZN17ContainerResource13writeAllRes32EP14UNewDataMemoryPj.exit

_ZN17ContainerResource13writeAllRes32EP14UNewDataMemoryPj.exit: ; preds = %_ZN17ContainerResource13writeAllRes32EP14UNewDataMemoryPj.exit.loopexit, %50
  %55 = phi i32 [ %.pre, %_ZN17ContainerResource13writeAllRes32EP14UNewDataMemoryPj.exit.loopexit ], [ %51, %50 ]
  %56 = getelementptr inbounds nuw i8, ptr %0, i64 56
  %57 = load i32, ptr %56, align 8, !tbaa !42
  %58 = shl i32 %57, 2
  %59 = add i32 %55, %58
  store i32 %59, ptr %2, align 4, !tbaa !7
  ret void
}